; ModuleID = '20/562.c'
source_filename = "20/562.c"
target datalayout = "e-m:e-p270:32:32-p271:32:32-p272:64:64-i64:64-f80:128-n8:16:32:64-S128"
target triple = "x86_64-pc-linux-gnu"

@.str = private unnamed_addr constant [5 x i8] c"%s%s\00", align 1
@.str.1 = private unnamed_addr constant [3 x i8] c"%c\00", align 1

; Function Attrs: noinline nounwind uwtable
define dso_local void @main() #0 {
  %1 = alloca [15 x i8], align 1
  %2 = alloca [4 x i8], align 1
  %3 = alloca i32, align 4
  br label %4

4:                                                ; preds = %9, %0
  %5 = getelementptr inbounds [15 x i8], [15 x i8]* %1, i64 0, i64 0
  %6 = getelementptr inbounds [4 x i8], [4 x i8]* %2, i64 0, i64 0
  %7 = call i32 (i8*, ...) @__isoc99_scanf(i8* getelementptr inbounds ([5 x i8], [5 x i8]* @.str, i64 0, i64 0), i8* %5, i8* %6)
  %8 = icmp ne i32 %7, -1
  br i1 %8, label %9, label %16

9:                                                ; preds = %4
  %10 = getelementptr inbounds [15 x i8], [15 x i8]* %1, i64 0, i64 0
  %11 = call i32 @max(i8* %10)
  store i32 %11, i32* %3, align 4
  %12 = getelementptr inbounds [15 x i8], [15 x i8]* %1, i64 0, i64 0
  %13 = load i32, i32* %3, align 4
  %14 = getelementptr inbounds [4 x i8], [4 x i8]* %2, i64 0, i64 0
  call void @cut(i8* %12, i32 %13, i8* %14)
  %15 = call i32 @putchar(i32 10)
  br label %4

16:                                               ; preds = %4
  ret void
}

declare dso_local i32 @__isoc99_scanf(i8*, ...) #1

; Function Attrs: noinline nounwind uwtable
define dso_local i32 @max(i8* %0) #0 {
  %2 = alloca i8*, align 8
  %3 = alloca i32, align 4
  %4 = alloca i32, align 4
  %5 = alloca i32, align 4
  %6 = alloca i8, align 1
  store i8* %0, i8** %2, align 8
  %7 = load i8*, i8** %2, align 8
  %8 = getelementptr inbounds i8, i8* %7, i64 0
  %9 = load i8, i8* %8, align 1
  store i8 %9, i8* %6, align 1
  %10 = load i8*, i8** %2, align 8
  %11 = call i64 @strlen(i8* %10) #3
  %12 = trunc i64 %11 to i32
  store i32 %12, i32* %4, align 4
  store i32 0, i32* %3, align 4
  br label %13

13:                                               ; preds = %39, %1
  %14 = load i32, i32* %3, align 4
  %15 = load i32, i32* %4, align 4
  %16 = sub nsw i32 %15, 1
  %17 = icmp slt i32 %14, %16
  br i1 %17, label %18, label %42

18:                                               ; preds = %13
  %19 = load i8*, i8** %2, align 8
  %20 = load i32, i32* %3, align 4
  %21 = add nsw i32 %20, 1
  %22 = sext i32 %21 to i64
  %23 = getelementptr inbounds i8, i8* %19, i64 %22
  %24 = load i8, i8* %23, align 1
  %25 = sext i8 %24 to i32
  %26 = load i8, i8* %6, align 1
  %27 = sext i8 %26 to i32
  %28 = icmp sgt i32 %25, %27
  br i1 %28, label %29, label %38

29:                                               ; preds = %18
  %30 = load i8*, i8** %2, align 8
  %31 = load i32, i32* %3, align 4
  %32 = add nsw i32 %31, 1
  %33 = sext i32 %32 to i64
  %34 = getelementptr inbounds i8, i8* %30, i64 %33
  %35 = load i8, i8* %34, align 1
  store i8 %35, i8* %6, align 1
  %36 = load i32, i32* %3, align 4
  %37 = add nsw i32 %36, 1
  store i32 %37, i32* %5, align 4
  br label %38

38:                                               ; preds = %29, %18
  br label %39

39:                                               ; preds = %38
  %40 = load i32, i32* %3, align 4
  %41 = add nsw i32 %40, 1
  store i32 %41, i32* %3, align 4
  br label %13

42:                                               ; preds = %13
  %43 = load i32, i32* %5, align 4
  ret i32 %43
}

; Function Attrs: noinline nounwind uwtable
define dso_local void @cut(i8* %0, i32 %1, i8* %2) #0 {
  %4 = alloca i8*, align 8
  %5 = alloca i32, align 4
  %6 = alloca i8*, align 8
  %7 = alloca i32, align 4
  %8 = alloca i32, align 4
  %9 = alloca i32, align 4
  store i8* %0, i8** %4, align 8
  store i32 %1, i32* %5, align 4
  store i8* %2, i8** %6, align 8
  %10 = load i8*, i8** %4, align 8
  %11 = call i64 @strlen(i8* %10) #3
  %12 = trunc i64 %11 to i32
  store i32 %12, i32* %9, align 4
  %13 = load i32, i32* %9, align 4
  %14 = add nsw i32 %13, 2
  store i32 %14, i32* %7, align 4
  br label %15

15:                                               ; preds = %30, %3
  %16 = load i32, i32* %7, align 4
  %17 = load i32, i32* %5, align 4
  %18 = icmp sgt i32 %16, %17
  br i1 %18, label %19, label %33

19:                                               ; preds = %15
  %20 = load i8*, i8** %4, align 8
  %21 = load i32, i32* %7, align 4
  %22 = sub nsw i32 %21, 3
  %23 = sext i32 %22 to i64
  %24 = getelementptr inbounds i8, i8* %20, i64 %23
  %25 = load i8, i8* %24, align 1
  %26 = load i8*, i8** %4, align 8
  %27 = load i32, i32* %7, align 4
  %28 = sext i32 %27 to i64
  %29 = getelementptr inbounds i8, i8* %26, i64 %28
  store i8 %25, i8* %29, align 1
  br label %30

30:                                               ; preds = %19
  %31 = load i32, i32* %7, align 4
  %32 = add nsw i32 %31, -1
  store i32 %32, i32* %7, align 4
  br label %15

33:                                               ; preds = %15
  %34 = load i32, i32* %5, align 4
  %35 = add nsw i32 %34, 1
  store i32 %35, i32* %7, align 4
  br label %36

36:                                               ; preds = %54, %33
  %37 = load i32, i32* %7, align 4
  %38 = load i32, i32* %5, align 4
  %39 = add nsw i32 %38, 4
  %40 = icmp slt i32 %37, %39
  br i1 %40, label %41, label %57

41:                                               ; preds = %36
  %42 = load i8*, i8** %6, align 8
  %43 = load i32, i32* %7, align 4
  %44 = load i32, i32* %5, align 4
  %45 = sub nsw i32 %43, %44
  %46 = sub nsw i32 %45, 1
  %47 = sext i32 %46 to i64
  %48 = getelementptr inbounds i8, i8* %42, i64 %47
  %49 = load i8, i8* %48, align 1
  %50 = load i8*, i8** %4, align 8
  %51 = load i32, i32* %7, align 4
  %52 = sext i32 %51 to i64
  %53 = getelementptr inbounds i8, i8* %50, i64 %52
  store i8 %49, i8* %53, align 1
  br label %54

54:                                               ; preds = %41
  %55 = load i32, i32* %7, align 4
  %56 = add nsw i32 %55, 1
  store i32 %56, i32* %7, align 4
  br label %36

57:                                               ; preds = %36
  store i32 0, i32* %7, align 4
  br label %58

58:                                               ; preds = %71, %57
  %59 = load i32, i32* %7, align 4
  %60 = load i32, i32* %9, align 4
  %61 = add nsw i32 %60, 3
  %62 = icmp slt i32 %59, %61
  br i1 %62, label %63, label %74

63:                                               ; preds = %58
  %64 = load i8*, i8** %4, align 8
  %65 = load i32, i32* %7, align 4
  %66 = sext i32 %65 to i64
  %67 = getelementptr inbounds i8, i8* %64, i64 %66
  %68 = load i8, i8* %67, align 1
  %69 = sext i8 %68 to i32
  %70 = call i32 (i8*, ...) @printf(i8* getelementptr inbounds ([3 x i8], [3 x i8]* @.str.1, i64 0, i64 0), i32 %69)
  br label %71

71:                                               ; preds = %63
  %72 = load i32, i32* %7, align 4
  %73 = add nsw i32 %72, 1
  store i32 %73, i32* %7, align 4
  br label %58

74:                                               ; preds = %58
  ret void
}

declare dso_local i32 @putchar(i32) #1

; Function Attrs: nounwind readonly
declare dso_local i64 @strlen(i8*) #2

declare dso_local i32 @printf(i8*, ...) #1


!llvm.module.flags = !{!0}
!llvm.ident = !{!1}

!0 = !{i32 1, !"wchar_size", i32 4}
!1 = !{!"clang version 10.0.0-4ubuntu1 "}
